target datalayout = "e-m:e-p270:32:32-p271:32:32-p272:64:64-i64:64-i128:128-f80:128-n8:16:32:64-S128"
target triple = "x86_64-pc-linux-gnu"

@kGammaTablesSOk = internal global i32 0, align 4
@kGammaToLinearTabS = internal global [1026 x i32] zeroinitializer, align 16
@kLinearToGammaTabS = internal global [514 x i32] zeroinitializer, align 16

; Function Attrs: nounwind uwtable
define hidden void @SharpYuvInitGammaTables() #0 {
  %1 = alloca i32, align 4
  %2 = alloca double, align 8
  %3 = alloca double, align 8
  %4 = alloca double, align 8
  %5 = alloca double, align 8
  %6 = alloca double, align 8
  %7 = alloca double, align 8
  %8 = alloca double, align 8
  %9 = alloca double, align 8
  %10 = alloca double, align 8
  %11 = alloca double, align 8
  %12 = load volatile i32, ptr @kGammaTablesSOk, align 4, !tbaa !3
  %13 = icmp ne i32 %12, 0
  br i1 %13, label %72, label %14

14:                                               ; preds = %0
  call void @llvm.lifetime.start.p0(i64 4, ptr %1) #5
  call void @llvm.lifetime.start.p0(i64 8, ptr %2) #5
  store double 0x3FB96B844FBE3D2B, ptr %2, align 8, !tbaa !7
  call void @llvm.lifetime.start.p0(i64 8, ptr %3) #5
  store double 0x3F927CBD51448945, ptr %3, align 8, !tbaa !7
  call void @llvm.lifetime.start.p0(i64 8, ptr %4) #5
  store double 6.553600e+04, ptr %4, align 8, !tbaa !7
  call void @llvm.lifetime.start.p0(i64 8, ptr %5) #5
  store double 0x3F50000000000000, ptr %5, align 8, !tbaa !7
  call void @llvm.lifetime.start.p0(i64 8, ptr %6) #5
  store double 0x3FED1C09536E448E, ptr %6, align 8, !tbaa !7
  store i32 0, ptr %1, align 4, !tbaa !3
  br label %15

15:                                               ; preds = %39, %14
  %16 = load i32, ptr %1, align 4, !tbaa !3
  %17 = icmp sle i32 %16, 1024
  br i1 %17, label %18, label %42

18:                                               ; preds = %15
  call void @llvm.lifetime.start.p0(i64 8, ptr %7) #5
  %19 = load i32, ptr %1, align 4, !tbaa !3
  %20 = sitofp i32 %19 to double
  %21 = fmul double 0x3F50000000000000, %20
  store double %21, ptr %7, align 8, !tbaa !7
  call void @llvm.lifetime.start.p0(i64 8, ptr %8) #5
  %22 = load double, ptr %7, align 8, !tbaa !7
  %23 = fcmp ole double %22, 0x3FB4CC54FB6D1A6E
  br i1 %23, label %24, label %27

24:                                               ; preds = %18
  %25 = load double, ptr %7, align 8, !tbaa !7
  %26 = fdiv double %25, 4.500000e+00
  store double %26, ptr %8, align 8, !tbaa !7
  br label %32

27:                                               ; preds = %18
  %28 = load double, ptr %7, align 8, !tbaa !7
  %29 = fadd double %28, 0x3FB96B844FBE3D2B
  %30 = fmul double 0x3FED1C09536E448E, %29
  %31 = call double @pow(double noundef %30, double noundef 0x4001C71C71C71C72) #5, !tbaa !3
  store double %31, ptr %8, align 8, !tbaa !7
  br label %32

32:                                               ; preds = %27, %24
  %33 = load double, ptr %8, align 8, !tbaa !7
  %34 = call double @llvm.fmuladd.f64(double %33, double 6.553600e+04, double 5.000000e-01)
  %35 = fptoui double %34 to i32
  %36 = load i32, ptr %1, align 4, !tbaa !3
  %37 = sext i32 %36 to i64
  %38 = getelementptr inbounds [1026 x i32], ptr @kGammaToLinearTabS, i64 0, i64 %37
  store i32 %35, ptr %38, align 4, !tbaa !3
  call void @llvm.lifetime.end.p0(i64 8, ptr %8) #5
  call void @llvm.lifetime.end.p0(i64 8, ptr %7) #5
  br label %39

39:                                               ; preds = %32
  %40 = load i32, ptr %1, align 4, !tbaa !3
  %41 = add nsw i32 %40, 1
  store i32 %41, ptr %1, align 4, !tbaa !3
  br label %15, !llvm.loop !9

42:                                               ; preds = %15
  %43 = load i32, ptr getelementptr inbounds ([1026 x i32], ptr @kGammaToLinearTabS, i64 0, i64 1024), align 16, !tbaa !3
  store i32 %43, ptr getelementptr inbounds ([1026 x i32], ptr @kGammaToLinearTabS, i64 0, i64 1025), align 4, !tbaa !3
  call void @llvm.lifetime.end.p0(i64 8, ptr %6) #5
  call void @llvm.lifetime.end.p0(i64 8, ptr %5) #5
  call void @llvm.lifetime.start.p0(i64 8, ptr %9) #5
  store double 0x3F60000000000000, ptr %9, align 8, !tbaa !7
  store i32 0, ptr %1, align 4, !tbaa !3
  br label %44

44:                                               ; preds = %67, %42
  %45 = load i32, ptr %1, align 4, !tbaa !3
  %46 = icmp sle i32 %45, 512
  br i1 %46, label %47, label %70

47:                                               ; preds = %44
  call void @llvm.lifetime.start.p0(i64 8, ptr %10) #5
  %48 = load i32, ptr %1, align 4, !tbaa !3
  %49 = sitofp i32 %48 to double
  %50 = fmul double 0x3F60000000000000, %49
  store double %50, ptr %10, align 8, !tbaa !7
  call void @llvm.lifetime.start.p0(i64 8, ptr %11) #5
  %51 = load double, ptr %10, align 8, !tbaa !7
  %52 = fcmp ole double %51, 0x3F927CBD51448945
  br i1 %52, label %53, label %56

53:                                               ; preds = %47
  %54 = load double, ptr %10, align 8, !tbaa !7
  %55 = fmul double 4.500000e+00, %54
  store double %55, ptr %11, align 8, !tbaa !7
  br label %60

56:                                               ; preds = %47
  %57 = load double, ptr %10, align 8, !tbaa !7
  %58 = call double @pow(double noundef %57, double noundef 0x3FDCCCCCCCCCCCCC) #5, !tbaa !3
  %59 = call double @llvm.fmuladd.f64(double 0x3FF196B844FBE3D3, double %58, double 0xBFB96B844FBE3D2B)
  store double %59, ptr %11, align 8, !tbaa !7
  br label %60

60:                                               ; preds = %56, %53
  %61 = load double, ptr %11, align 8, !tbaa !7
  %62 = call double @llvm.fmuladd.f64(double 6.553600e+04, double %61, double 5.000000e-01)
  %63 = fptoui double %62 to i32
  %64 = load i32, ptr %1, align 4, !tbaa !3
  %65 = sext i32 %64 to i64
  %66 = getelementptr inbounds [514 x i32], ptr @kLinearToGammaTabS, i64 0, i64 %65
  store i32 %63, ptr %66, align 4, !tbaa !3
  call void @llvm.lifetime.end.p0(i64 8, ptr %11) #5
  call void @llvm.lifetime.end.p0(i64 8, ptr %10) #5
  br label %67

67:                                               ; preds = %60
  %68 = load i32, ptr %1, align 4, !tbaa !3
  %69 = add nsw i32 %68, 1
  store i32 %69, ptr %1, align 4, !tbaa !3
  br label %44, !llvm.loop !11

70:                                               ; preds = %44
  %71 = load i32, ptr getelementptr inbounds ([514 x i32], ptr @kLinearToGammaTabS, i64 0, i64 512), align 16, !tbaa !3
  store i32 %71, ptr getelementptr inbounds ([514 x i32], ptr @kLinearToGammaTabS, i64 0, i64 513), align 4, !tbaa !3
  call void @llvm.lifetime.end.p0(i64 8, ptr %9) #5
  store volatile i32 1, ptr @kGammaTablesSOk, align 4, !tbaa !3
  call void @llvm.lifetime.end.p0(i64 8, ptr %4) #5
  call void @llvm.lifetime.end.p0(i64 8, ptr %3) #5
  call void @llvm.lifetime.end.p0(i64 8, ptr %2) #5
  call void @llvm.lifetime.end.p0(i64 4, ptr %1) #5
  br label %72

72:                                               ; preds = %70, %0
  ret void
}