; Function Attrs: nofree nounwind memory(readwrite, argmem: write) uwtable
define hidden void @SharpYuvInitGammaTables() local_unnamed_addr #0 {
  %1 = load volatile i32, ptr @kGammaTablesSOk, align 4, !tbaa !3
  %.not = icmp eq i32 %1, 0
  br i1 %.not, label %.preheader, label %34

.preheader:                                       ; preds = %0, %12
  %indvars.iv = phi i64 [ %indvars.iv.next, %12 ], [ 0, %0 ]
  %2 = trunc nuw nsw i64 %indvars.iv to i32
  %3 = uitofp nneg i32 %2 to double
  %4 = fmul double %3, 0x3F50000000000000
  %5 = fcmp ugt double %4, 0x3FB4CC54FB6D1A6E
  br i1 %5, label %8, label %6

6:                                                ; preds = %.preheader
  %7 = fdiv double %4, 4.500000e+00
  br label %12

8:                                                ; preds = %.preheader
  %9 = fadd double %4, 0x3FB96B844FBE3D2B
  %10 = fmul double %9, 0x3FED1C09536E448E
  %11 = tail call double @pow(double noundef %10, double noundef 0x4001C71C71C71C72) #5, !tbaa !3
  br label %12

12:                                               ; preds = %8, %6
  %.016 = phi double [ %7, %6 ], [ %11, %8 ]
  %13 = tail call double @llvm.fmuladd.f64(double %.016, double 6.553600e+04, double 5.000000e-01)
  %14 = fptoui double %13 to i32
  %15 = getelementptr inbounds nuw [1026 x i32], ptr @kGammaToLinearTabS, i64 0, i64 %indvars.iv
  store i32 %14, ptr %15, align 4, !tbaa !3
  %indvars.iv.next = add nuw nsw i64 %indvars.iv, 1
  %exitcond.not = icmp eq i64 %indvars.iv.next, 1025
  br i1 %exitcond.not, label %16, label %.preheader, !llvm.loop !7

16:                                               ; preds = %12
  %17 = load i32, ptr getelementptr inbounds nuw (i8, ptr @kGammaToLinearTabS, i64 4096), align 16, !tbaa !3
  store i32 %17, ptr getelementptr inbounds nuw (i8, ptr @kGammaToLinearTabS, i64 4100), align 4, !tbaa !3
  br label %18

18:                                               ; preds = %16, %28
  %indvars.iv24 = phi i64 [ 0, %16 ], [ %indvars.iv.next25, %28 ]
  %19 = trunc nuw nsw i64 %indvars.iv24 to i32
  %20 = uitofp nneg i32 %19 to double
  %21 = fmul double %20, 0x3F60000000000000
  %22 = fcmp ugt double %21, 0x3F927CBD51448945
  br i1 %22, label %25, label %23

23:                                               ; preds = %18
  %24 = fmul double %21, 4.500000e+00
  br label %28

25:                                               ; preds = %18
  %26 = tail call double @pow(double noundef %21, double noundef 0x3FDCCCCCCCCCCCCC) #5, !tbaa !3
  %27 = tail call double @llvm.fmuladd.f64(double %26, double 0x3FF196B844FBE3D3, double 0xBFB96B844FBE3D2B)
  br label %28

28:                                               ; preds = %25, %23
  %.0 = phi double [ %24, %23 ], [ %27, %25 ]
  %29 = tail call double @llvm.fmuladd.f64(double %.0, double 6.553600e+04, double 5.000000e-01)
  %30 = fptoui double %29 to i32
  %31 = getelementptr inbounds nuw [514 x i32], ptr @kLinearToGammaTabS, i64 0, i64 %indvars.iv24
  store i32 %30, ptr %31, align 4, !tbaa !3
  %indvars.iv.next25 = add nuw nsw i64 %indvars.iv24, 1
  %exitcond27.not = icmp eq i64 %indvars.iv.next25, 513
  br i1 %exitcond27.not, label %32, label %18, !llvm.loop !9

32:                                               ; preds = %28
  %33 = load i32, ptr getelementptr inbounds nuw (i8, ptr @kLinearToGammaTabS, i64 2048), align 16, !tbaa !3
  store i32 %33, ptr getelementptr inbounds nuw (i8, ptr @kLinearToGammaTabS, i64 2052), align 4, !tbaa !3
  store volatile i32 1, ptr @kGammaTablesSOk, align 4, !tbaa !3
  br label %34

34:                                               ; preds = %32, %0
  ret void
}